target datalayout = "e-m:e-p270:32:32-p271:32:32-p272:64:64-i64:64-i128:128-f80:128-n8:16:32:64-S128"
target triple = "x86_64-pc-linux-gnu"

%struct.pmix_list_t = type { %struct.pmix_object_t, %struct.pmix_list_item_t, i64 }
%struct.pmix_object_t = type { %union.pthread_mutex_t, ptr, i32, %struct.pmix_tma }
%union.pthread_mutex_t = type { %struct.__pthread_mutex_s }
%struct.__pthread_mutex_s = type { i32, i32, i32, i32, i32, i16, i16, %struct.__pthread_internal_list }
%struct.__pthread_internal_list = type { ptr, ptr }
%struct.pmix_tma = type { ptr, ptr, ptr, ptr, ptr, ptr, ptr, ptr }
%struct.pmix_list_item_t = type { %struct.pmix_object_t, ptr, ptr, i32 }
%struct.prte_rml_base_t = type { i32, i32, i32, i32, %struct.pmix_list_t, %struct.pmix_list_t, i32, %struct.pmix_list_t, i32, i8 }
%struct.pmix_output_desc_t = type { i8, i8, i32, i8, i32, ptr, ptr, i32, ptr, i32, i8, i8, i8, i8, ptr, i32, i32 }
%struct.pmix_proc = type { [256 x i8], i32 }
%struct.prte_process_info_t = type { %struct.pmix_proc, %struct.pmix_proc, ptr, %struct.pmix_proc, i32, i32, i32, ptr, ptr, i32, i8, ptr, i16, ptr, ptr, i8, ptr, i8 }

@prte_rml_base = external global %struct.prte_rml_base_t, align 8
@pmix_output_info = external global [0 x %struct.pmix_output_desc_t], align 8
@.str.1 = private unnamed_addr constant [17 x i8] c"grpcomm_direct.c\00", align 1
@prte_process_info = external global %struct.prte_process_info_t, align 8
@.str.8 = private unnamed_addr constant [37 x i8] c"PRTE ERROR: %s in file %s at line %d\00", align 1
@.str.11 = private unnamed_addr constant [26 x i8] c"RML-SEND(%s:%d): %s:%s:%d\00", align 1
@__func__.xcast = private unnamed_addr constant [6 x i8] c"xcast\00", align 1

; Function Attrs: nounwind uwtable
define internal i32 @xcast(ptr noundef %0, i64 noundef %1, ptr noundef %2) #0 {
  %4 = alloca i32, align 4
  %5 = alloca ptr, align 8
  %6 = alloca i64, align 8
  %7 = alloca ptr, align 8
  %8 = alloca i32, align 4
  %9 = alloca i32, align 4
  store ptr %0, ptr %5, align 8, !tbaa !31
  store i64 %1, ptr %6, align 8, !tbaa !33
  store ptr %2, ptr %7, align 8, !tbaa !34
  call void @llvm.lifetime.start.p0(i64 4, ptr %8) #10
  br label %10

10:                                               ; preds = %3
  %11 = load i32, ptr @prte_rml_base, align 8, !tbaa !17
  %12 = icmp sge i32 %11, 0
  br i1 %12, label %13, label %27

13:                                               ; preds = %10
  %14 = load i32, ptr @prte_rml_base, align 8, !tbaa !17
  %15 = icmp slt i32 %14, 64
  br i1 %15, label %16, label %27

16:                                               ; preds = %13
  %17 = load i32, ptr @prte_rml_base, align 8, !tbaa !17
  %18 = sext i32 %17 to i64
  %19 = getelementptr inbounds [0 x %struct.pmix_output_desc_t], ptr @pmix_output_info, i64 0, i64 %18
  %20 = getelementptr inbounds nuw %struct.pmix_output_desc_t, ptr %19, i32 0, i32 2
  %21 = load i32, ptr %20, align 4, !tbaa !23
  %22 = icmp sge i32 %21, 2
  br i1 %22, label %23, label %27

23:                                               ; preds = %16
  %24 = load i32, ptr @prte_rml_base, align 8, !tbaa !17
  %25 = load i32, ptr getelementptr inbounds nuw (%struct.pmix_proc, ptr getelementptr inbounds nuw (%struct.prte_process_info_t, ptr @prte_process_info, i32 0, i32 1), i32 0, i32 1), align 4, !tbaa !36
  %26 = call ptr @pmix_util_print_rank(i32 noundef %25)
  call void (i32, ptr, ...) @pmix_output(i32 noundef %24, ptr noundef @.str.11, ptr noundef %26, i32 noundef 15, ptr noundef @.str.1, ptr noundef @__func__.xcast, i32 noundef 100)
  br label %27

27:                                               ; preds = %23, %16, %13, %10
  %28 = load i32, ptr getelementptr inbounds nuw (%struct.pmix_proc, ptr getelementptr inbounds nuw (%struct.prte_process_info_t, ptr @prte_process_info, i32 0, i32 1), i32 0, i32 1), align 4, !tbaa !36
  %29 = load ptr, ptr %7, align 8, !tbaa !34
  %30 = call i32 @prte_rml_send_buffer_nb(i32 noundef %28, ptr noundef %29, i32 noundef 15)
  store i32 %30, ptr %8, align 4, !tbaa !3
  br label %31

31:                                               ; preds = %27
  br label %32

32:                                               ; preds = %31
  %33 = load i32, ptr %8, align 4, !tbaa !3
  %34 = icmp ne i32 0, %33
  br i1 %34, label %35, label %50

35:                                               ; preds = %32
  br label %36

36:                                               ; preds = %35
  %37 = load i32, ptr %8, align 4, !tbaa !3
  %38 = icmp ne i32 -43, %37
  br i1 %38, label %39, label %42

39:                                               ; preds = %36
  %40 = load i32, ptr %8, align 4, !tbaa !3
  %41 = call ptr @prte_strerror(i32 noundef %40)
  call void (i32, ptr, ...) @pmix_output(i32 noundef 0, ptr noundef @.str.8, ptr noundef %41, ptr noundef @.str.1, i32 noundef 102)
  br label %42

42:                                               ; preds = %39, %36
  br label %43

43:                                               ; preds = %42
  br label %44

44:                                               ; preds = %43
  br label %45

45:                                               ; preds = %44
  %46 = load ptr, ptr %7, align 8, !tbaa !34
  call void @PMIx_Data_buffer_release(ptr noundef %46)
  store ptr null, ptr %7, align 8, !tbaa !34
  br label %47

47:                                               ; preds = %45
  br label %48

48:                                               ; preds = %47
  %49 = load i32, ptr %8, align 4, !tbaa !3
  store i32 %49, ptr %4, align 4
  store i32 1, ptr %9, align 4
  br label %51

50:                                               ; preds = %32
  store i32 0, ptr %4, align 4
  store i32 1, ptr %9, align 4
  br label %51

51:                                               ; preds = %50, %48
  call void @llvm.lifetime.end.p0(i64 4, ptr %8) #10
  %52 = load i32, ptr %4, align 4
  ret i32 %52
}