; Function Attrs: nounwind uwtable
define internal noundef i32 @xcast(ptr readnone captures(none) %0, i64 %1, ptr noundef %2) #0 {
  %4 = load i32, ptr @prte_rml_base, align 8, !tbaa !21
  %or.cond = icmp ult i32 %4, 64
  br i1 %or.cond, label %5, label %13

5:                                                ; preds = %3
  %6 = zext nneg i32 %4 to i64
  %7 = getelementptr inbounds nuw [0 x %struct.pmix_output_desc_t], ptr @pmix_output_info, i64 0, i64 %6, i32 2
  %8 = load i32, ptr %7, align 4, !tbaa !27
  %9 = icmp sgt i32 %8, 1
  br i1 %9, label %10, label %13

10:                                               ; preds = %5
  %11 = load i32, ptr getelementptr inbounds nuw (i8, ptr @prte_process_info, i64 516), align 4, !tbaa !37
  %12 = tail call ptr @pmix_util_print_rank(i32 noundef %11) #13
  tail call void (i32, ptr, ...) @pmix_output(i32 noundef %4, ptr noundef nonnull @.str.11, ptr noundef %12, i32 noundef 15, ptr noundef nonnull @.str.1, ptr noundef nonnull @__func__.xcast, i32 noundef 100) #13
  br label %13

13:                                               ; preds = %10, %5, %3
  %14 = load i32, ptr getelementptr inbounds nuw (i8, ptr @prte_process_info, i64 516), align 4, !tbaa !37
  %15 = tail call i32 @prte_rml_send_buffer_nb(i32 noundef %14, ptr noundef %2, i32 noundef 15) #13
  switch i32 %15, label %16 [
    i32 0, label %19
    i32 -43, label %18
  ]

16:                                               ; preds = %13
  %17 = tail call ptr @prte_strerror(i32 noundef %15) #13
  tail call void (i32, ptr, ...) @pmix_output(i32 noundef 0, ptr noundef nonnull @.str.8, ptr noundef %17, ptr noundef nonnull @.str.1, i32 noundef 102) #13
  br label %18

18:                                               ; preds = %13, %16
  tail call void @PMIx_Data_buffer_release(ptr noundef %2) #13
  br label %19

19:                                               ; preds = %13, %18
  ret i32 %15
}